target datalayout = "e-m:e-p270:32:32-p271:32:32-p272:64:64-i64:64-i128:128-f80:128-n8:16:32:64-S128"
target triple = "x86_64-pc-linux-gnu"

%"class.std::unique_ptr" = type { %"struct.std::__uniq_ptr_data" }
%"struct.std::__uniq_ptr_data" = type { %"class.std::__uniq_ptr_impl" }
%"class.std::__uniq_ptr_impl" = type { %"class.std::tuple" }
%"class.std::tuple" = type { %"struct.std::_Tuple_impl" }
%"struct.std::_Tuple_impl" = type { %"struct.std::_Head_base.1" }
%"struct.std::_Head_base.1" = type { ptr }
%"class.clang::CompilerInstance" = type { %"class.clang::ModuleLoader.base", %"class.std::shared_ptr", %"class.llvm::IntrusiveRefCntPtr", %"class.llvm::IntrusiveRefCntPtr.10", %"class.llvm::IntrusiveRefCntPtr.10", %"class.llvm::IntrusiveRefCntPtr.11", %"class.llvm::IntrusiveRefCntPtr.12", %"class.llvm::IntrusiveRefCntPtr.13", %"class.std::shared_ptr.14", %"class.llvm::IntrusiveRefCntPtr.17", %"class.llvm::IntrusiveRefCntPtr.18", %"class.std::unique_ptr", %"class.std::unique_ptr.19", %"class.std::unique_ptr.27", %"class.std::unique_ptr.35", %"class.std::unique_ptr.43", %"class.llvm::IntrusiveRefCntPtr.51", %"class.std::shared_ptr.52", %"class.std::shared_ptr.55", %"class.std::vector", %"class.std::shared_ptr.61", %"class.std::map", i8, %"class.clang::SourceLocation", %"class.clang::ModuleLoadResult", i8, i8, i8, %"class.std::unique_ptr.67", ptr, %"class.std::__cxx11::list", %"class.std::unique_ptr.78" }
%"class.clang::ModuleLoader.base" = type <{ ptr, i8, i8 }>
%"class.std::shared_ptr" = type { %"class.std::__shared_ptr" }
%"class.std::__shared_ptr" = type { ptr, %"class.std::__shared_count" }
%"class.std::__shared_count" = type { ptr }
%"class.llvm::IntrusiveRefCntPtr" = type { ptr }
%"class.llvm::IntrusiveRefCntPtr.10" = type { ptr }
%"class.llvm::IntrusiveRefCntPtr.11" = type { ptr }
%"class.llvm::IntrusiveRefCntPtr.12" = type { ptr }
%"class.llvm::IntrusiveRefCntPtr.13" = type { ptr }
%"class.std::shared_ptr.14" = type { %"class.std::__shared_ptr.15" }
%"class.std::__shared_ptr.15" = type { ptr, %"class.std::__shared_count" }
%"class.llvm::IntrusiveRefCntPtr.17" = type { ptr }
%"class.llvm::IntrusiveRefCntPtr.18" = type { ptr }
%"class.std::unique_ptr.19" = type { %"struct.std::__uniq_ptr_data.20" }
%"struct.std::__uniq_ptr_data.20" = type { %"class.std::__uniq_ptr_impl.21" }
%"class.std::__uniq_ptr_impl.21" = type { %"class.std::tuple.22" }
%"class.std::tuple.22" = type { %"struct.std::_Tuple_impl.23" }
%"struct.std::_Tuple_impl.23" = type { %"struct.std::_Head_base.26" }
%"struct.std::_Head_base.26" = type { ptr }
%"class.std::unique_ptr.27" = type { %"struct.std::__uniq_ptr_data.28" }
%"struct.std::__uniq_ptr_data.28" = type { %"class.std::__uniq_ptr_impl.29" }
%"class.std::__uniq_ptr_impl.29" = type { %"class.std::tuple.30" }
%"class.std::tuple.30" = type { %"struct.std::_Tuple_impl.31" }
%"struct.std::_Tuple_impl.31" = type { %"struct.std::_Head_base.34" }
%"struct.std::_Head_base.34" = type { ptr }
%"class.std::unique_ptr.35" = type { %"struct.std::__uniq_ptr_data.36" }
%"struct.std::__uniq_ptr_data.36" = type { %"class.std::__uniq_ptr_impl.37" }
%"class.std::__uniq_ptr_impl.37" = type { %"class.std::tuple.38" }
%"class.std::tuple.38" = type { %"struct.std::_Tuple_impl.39" }
%"struct.std::_Tuple_impl.39" = type { %"struct.std::_Head_base.42" }
%"struct.std::_Head_base.42" = type { ptr }
%"class.std::unique_ptr.43" = type { %"struct.std::__uniq_ptr_data.44" }
%"struct.std::__uniq_ptr_data.44" = type { %"class.std::__uniq_ptr_impl.45" }
%"class.std::__uniq_ptr_impl.45" = type { %"class.std::tuple.46" }
%"class.std::tuple.46" = type { %"struct.std::_Tuple_impl.47" }
%"struct.std::_Tuple_impl.47" = type { %"struct.std::_Head_base.50" }
%"struct.std::_Head_base.50" = type { ptr }
%"class.llvm::IntrusiveRefCntPtr.51" = type { ptr }
%"class.std::shared_ptr.52" = type { %"class.std::__shared_ptr.53" }
%"class.std::__shared_ptr.53" = type { ptr, %"class.std::__shared_count" }
%"class.std::shared_ptr.55" = type { %"class.std::__shared_ptr.56" }
%"class.std::__shared_ptr.56" = type { ptr, %"class.std::__shared_count" }
%"class.std::vector" = type { %"struct.std::_Vector_base" }
%"struct.std::_Vector_base" = type { %"struct.std::_Vector_base<std::shared_ptr<clang::DependencyCollector>, std::allocator<std::shared_ptr<clang::DependencyCollector>>>::_Vector_impl" }
%"struct.std::_Vector_base<std::shared_ptr<clang::DependencyCollector>, std::allocator<std::shared_ptr<clang::DependencyCollector>>>::_Vector_impl" = type { %"struct.std::_Vector_base<std::shared_ptr<clang::DependencyCollector>, std::allocator<std::shared_ptr<clang::DependencyCollector>>>::_Vector_impl_data" }
%"struct.std::_Vector_base<std::shared_ptr<clang::DependencyCollector>, std::allocator<std::shared_ptr<clang::DependencyCollector>>>::_Vector_impl_data" = type { ptr, ptr, ptr }
%"class.std::shared_ptr.61" = type { %"class.std::__shared_ptr.62" }
%"class.std::__shared_ptr.62" = type { ptr, %"class.std::__shared_count" }
%"class.std::map" = type { %"class.std::_Rb_tree" }
%"class.std::_Rb_tree" = type { %"struct.std::_Rb_tree<std::__cxx11::basic_string<char>, std::pair<const std::__cxx11::basic_string<char>, std::__cxx11::basic_string<char>>, std::_Select1st<std::pair<const std::__cxx11::basic_string<char>, std::__cxx11::basic_string<char>>>, std::less<void>>::_Rb_tree_impl" }
%"struct.std::_Rb_tree<std::__cxx11::basic_string<char>, std::pair<const std::__cxx11::basic_string<char>, std::__cxx11::basic_string<char>>, std::_Select1st<std::pair<const std::__cxx11::basic_string<char>, std::__cxx11::basic_string<char>>>, std::less<void>>::_Rb_tree_impl" = type { [8 x i8], %"struct.std::_Rb_tree_header" }
%"struct.std::_Rb_tree_header" = type { %"struct.std::_Rb_tree_node_base", i64 }
%"struct.std::_Rb_tree_node_base" = type { i32, ptr, ptr, ptr }
%"class.clang::SourceLocation" = type { i32 }
%"class.clang::ModuleLoadResult" = type { %"class.llvm::PointerIntPair" }
%"class.llvm::PointerIntPair" = type { %"struct.llvm::detail::PunnedPointer" }
%"struct.llvm::detail::PunnedPointer" = type { [8 x i8] }
%"class.std::unique_ptr.67" = type { %"struct.std::__uniq_ptr_data.68" }
%"struct.std::__uniq_ptr_data.68" = type { %"class.std::__uniq_ptr_impl.69" }
%"class.std::__uniq_ptr_impl.69" = type { %"class.std::tuple.70" }
%"class.std::tuple.70" = type { %"struct.std::_Tuple_impl.71" }
%"struct.std::_Tuple_impl.71" = type { %"struct.std::_Head_base.74" }
%"struct.std::_Head_base.74" = type { ptr }
%"class.std::__cxx11::list" = type { %"class.std::__cxx11::_List_base" }
%"class.std::__cxx11::_List_base" = type { %"struct.std::__cxx11::_List_base<clang::CompilerInstance::OutputFile, std::allocator<clang::CompilerInstance::OutputFile>>::_List_impl" }
%"struct.std::__cxx11::_List_base<clang::CompilerInstance::OutputFile, std::allocator<clang::CompilerInstance::OutputFile>>::_List_impl" = type { %"struct.std::__detail::_List_node_header" }
%"struct.std::__detail::_List_node_header" = type { %"struct.std::__detail::_List_node_base", i64 }
%"struct.std::__detail::_List_node_base" = type { ptr, ptr }
%"class.std::unique_ptr.78" = type { %"struct.std::__uniq_ptr_data.79" }
%"struct.std::__uniq_ptr_data.79" = type { %"class.std::__uniq_ptr_impl.80" }
%"class.std::__uniq_ptr_impl.80" = type { %"class.std::tuple.81" }
%"class.std::tuple.81" = type { %"struct.std::_Tuple_impl.82" }
%"struct.std::_Tuple_impl.82" = type { %"struct.std::_Head_base.85" }
%"struct.std::_Head_base.85" = type { ptr }
%"class.clang::LangOptionsBase" = type <{ i64, i64, i64, i64, i64, i64, i64, i64, i64, i64, i64, i64, i64, i64, i64, i64, i64, i64, i64, i64, i64, i64, i64, i64, i64, i16, [2 x i8] }>
%"class.std::shared_ptr.88" = type { %"class.std::__shared_ptr.89" }
%"class.std::__shared_ptr.89" = type { ptr, %"class.std::__shared_count" }
%"class.std::shared_ptr.435" = type { %"class.std::__shared_ptr.436" }
%"class.std::__shared_ptr.436" = type { ptr, %"class.std::__shared_count" }
%"class.std::shared_ptr.2026" = type { %"class.std::__shared_ptr.2027" }
%"class.std::__shared_ptr.2027" = type { ptr, %"class.std::__shared_count" }
%"class.std::shared_ptr.2037" = type { %"class.std::__shared_ptr.2038" }
%"class.std::__shared_ptr.2038" = type { ptr, %"class.std::__shared_count" }
%"class.llvm::IntrusiveRefCntPtr.400" = type { ptr }
%"class.clang::CompilerInvocationBase" = type { %"class.std::shared_ptr.2026", %"class.std::shared_ptr.2037", %"class.llvm::IntrusiveRefCntPtr.400", %"class.std::shared_ptr.435", %"class.std::shared_ptr.88", %"class.llvm::IntrusiveRefCntPtr.2362", %"class.std::shared_ptr.2363", %"class.std::shared_ptr.2366", %"class.std::shared_ptr.2369", %"class.std::shared_ptr.2372", %"class.std::shared_ptr.2375", %"class.std::shared_ptr.2378", %"class.std::shared_ptr.2381" }
%"class.llvm::IntrusiveRefCntPtr.2362" = type { ptr }
%"class.std::shared_ptr.2363" = type { %"class.std::__shared_ptr.2364" }
%"class.std::__shared_ptr.2364" = type { ptr, %"class.std::__shared_count" }
%"class.std::shared_ptr.2366" = type { %"class.std::__shared_ptr.2367" }
%"class.std::__shared_ptr.2367" = type { ptr, %"class.std::__shared_count" }
%"class.std::shared_ptr.2369" = type { %"class.std::__shared_ptr.2370" }
%"class.std::__shared_ptr.2370" = type { ptr, %"class.std::__shared_count" }
%"class.std::shared_ptr.2372" = type { %"class.std::__shared_ptr.2373" }
%"class.std::__shared_ptr.2373" = type { ptr, %"class.std::__shared_count" }
%"class.std::shared_ptr.2375" = type { %"class.std::__shared_ptr.2376" }
%"class.std::__shared_ptr.2376" = type { ptr, %"class.std::__shared_count" }
%"class.std::shared_ptr.2378" = type { %"class.std::__shared_ptr.2379" }
%"class.std::__shared_ptr.2379" = type { ptr, %"class.std::__shared_count" }
%"class.std::shared_ptr.2381" = type { %"class.std::__shared_ptr.2382" }
%"class.std::__shared_ptr.2382" = type { ptr, %"class.std::__shared_count" }

; Function Attrs: mustprogress nounwind uwtable
define linkonce_odr hidden noundef ptr @_ZNKSt12__shared_ptrIN5clang11LangOptionsELN9__gnu_cxx12_Lock_policyE2EE3getEv(ptr noundef nonnull align 8 dereferenceable(16) %0) #0 comdat align 2 {
  %2 = alloca ptr, align 8
  store ptr %0, ptr %2, align 8
  %3 = load ptr, ptr %2, align 8
  %4 = getelementptr inbounds nuw %"class.std::__shared_ptr.2027", ptr %3, i32 0, i32 0
  %5 = load ptr, ptr %4, align 8
  ret ptr %5
}

; Function Attrs: mustprogress nounwind uwtable
define linkonce_odr hidden noundef ptr @_ZNKSt19__shared_ptr_accessIN5clang11LangOptionsELN9__gnu_cxx12_Lock_policyE2ELb0ELb0EE6_M_getEv(ptr noundef nonnull align 1 dereferenceable(1) %0) #0 comdat align 2 {
  %2 = alloca ptr, align 8
  store ptr %0, ptr %2, align 8
  %3 = load ptr, ptr %2, align 8
  %4 = call noundef ptr @_ZNKSt12__shared_ptrIN5clang11LangOptionsELN9__gnu_cxx12_Lock_policyE2EE3getEv(ptr noundef nonnull align 8 dereferenceable(16) %3) #13
  ret ptr %4
}

; Function Attrs: mustprogress nounwind uwtable
define linkonce_odr hidden noundef ptr @_ZNKSt12__shared_ptrIN5clang18CompilerInvocationELN9__gnu_cxx12_Lock_policyE2EE3getEv(ptr noundef nonnull align 8 dereferenceable(16) %0) #0 comdat align 2 {
  %2 = alloca ptr, align 8
  store ptr %0, ptr %2, align 8
  %3 = load ptr, ptr %2, align 8
  %4 = getelementptr inbounds nuw %"class.std::__shared_ptr", ptr %3, i32 0, i32 0
  %5 = load ptr, ptr %4, align 8
  ret ptr %5
}

; Function Attrs: mustprogress nounwind uwtable
define linkonce_odr hidden noundef nonnull align 8 dereferenceable(841) ptr @_ZNKSt19__shared_ptr_accessIN5clang11LangOptionsELN9__gnu_cxx12_Lock_policyE2ELb0ELb0EEdeEv(ptr noundef nonnull align 1 dereferenceable(1) %0) #0 comdat align 2 {
  %2 = alloca ptr, align 8
  store ptr %0, ptr %2, align 8
  %3 = load ptr, ptr %2, align 8
  br label %4

4:                                                ; preds = %1
  br label %5

5:                                                ; preds = %4
  %6 = call noundef ptr @_ZNKSt19__shared_ptr_accessIN5clang11LangOptionsELN9__gnu_cxx12_Lock_policyE2ELb0ELb0EE6_M_getEv(ptr noundef nonnull align 1 dereferenceable(1) %3) #13
  ret ptr %6
}

; Function Attrs: mustprogress nounwind uwtable
define linkonce_odr hidden noundef ptr @_ZNKSt19__shared_ptr_accessIN5clang18CompilerInvocationELN9__gnu_cxx12_Lock_policyE2ELb0ELb0EE6_M_getEv(ptr noundef nonnull align 1 dereferenceable(1) %0) #0 comdat align 2 {
  %2 = alloca ptr, align 8
  store ptr %0, ptr %2, align 8
  %3 = load ptr, ptr %2, align 8
  %4 = call noundef ptr @_ZNKSt12__shared_ptrIN5clang18CompilerInvocationELN9__gnu_cxx12_Lock_policyE2EE3getEv(ptr noundef nonnull align 8 dereferenceable(16) %3) #13
  ret ptr %4
}

; Function Attrs: mustprogress nounwind uwtable
define linkonce_odr hidden noundef nonnull align 8 dereferenceable(841) ptr @_ZN5clang18CompilerInvocation11getLangOptsEv(ptr noundef nonnull align 8 dereferenceable(192) %0) #0 comdat align 2 {
  %2 = alloca ptr, align 8
  store ptr %0, ptr %2, align 8
  %3 = load ptr, ptr %2, align 8
  %4 = getelementptr inbounds nuw %"class.clang::CompilerInvocationBase", ptr %3, i32 0, i32 0
  %5 = call noundef nonnull align 8 dereferenceable(841) ptr @_ZNKSt19__shared_ptr_accessIN5clang11LangOptionsELN9__gnu_cxx12_Lock_policyE2ELb0ELb0EEdeEv(ptr noundef nonnull align 1 dereferenceable(1) %4) #13
  ret ptr %5
}

; Function Attrs: mustprogress nounwind uwtable
define linkonce_odr hidden noundef ptr @_ZNKSt19__shared_ptr_accessIN5clang18CompilerInvocationELN9__gnu_cxx12_Lock_policyE2ELb0ELb0EEptEv(ptr noundef nonnull align 1 dereferenceable(1) %0) #0 comdat align 2 {
  %2 = alloca ptr, align 8
  store ptr %0, ptr %2, align 8
  %3 = load ptr, ptr %2, align 8
  %4 = call noundef ptr @_ZNKSt19__shared_ptr_accessIN5clang18CompilerInvocationELN9__gnu_cxx12_Lock_policyE2ELb0ELb0EE6_M_getEv(ptr noundef nonnull align 1 dereferenceable(1) %3) #13
  ret ptr %4
}

; Function Attrs: mustprogress nounwind uwtable
define linkonce_odr hidden noundef zeroext i1 @_ZN5clang14FrontendAction21BeginSourceFileActionERNS_16CompilerInstanceE(ptr noundef nonnull align 8 dereferenceable(104) %0, ptr noundef nonnull align 8 dereferenceable(352) %1) unnamed_addr #0 comdat align 2 {
  %3 = alloca ptr, align 8
  %4 = alloca ptr, align 8
  store ptr %0, ptr %3, align 8
  store ptr %1, ptr %4, align 8
  ret i1 true
}

; Function Attrs: mustprogress nounwind uwtable
define linkonce_odr hidden void @_ZN5clang11LangOptions18setCompilingModuleENS_15LangOptionsBase19CompilingModuleKindE(ptr noundef nonnull align 8 dereferenceable(841) %0, i32 noundef %1) #0 comdat align 2 {
  %3 = alloca ptr, align 8
  %4 = alloca i32, align 4
  store ptr %0, ptr %3, align 8
  store i32 %1, ptr %4, align 4
  %5 = load ptr, ptr %3, align 8
  %6 = load i32, ptr %4, align 4
  %7 = getelementptr inbounds nuw %"class.clang::LangOptionsBase", ptr %5, i32 0, i32 23
  %8 = zext i32 %6 to i64
  %9 = load i64, ptr %7, align 8
  %10 = and i64 %8, 7
  %11 = shl i64 %10, 43
  %12 = and i64 %9, -61572651155457
  %13 = or i64 %12, %11
  store i64 %13, ptr %7, align 8
  ret void
}

; Function Attrs: mustprogress nounwind uwtable
define linkonce_odr hidden noundef nonnull align 8 dereferenceable(841) ptr @_ZN5clang16CompilerInstance11getLangOptsEv(ptr noundef nonnull align 8 dereferenceable(352) %0) #0 comdat align 2 {
  %2 = alloca ptr, align 8
  store ptr %0, ptr %2, align 8
  %3 = load ptr, ptr %2, align 8
  %4 = getelementptr inbounds nuw %"class.clang::CompilerInstance", ptr %3, i32 0, i32 1
  %5 = call noundef ptr @_ZNKSt19__shared_ptr_accessIN5clang18CompilerInvocationELN9__gnu_cxx12_Lock_policyE2ELb0ELb0EEptEv(ptr noundef nonnull align 1 dereferenceable(1) %4) #13
  %6 = call noundef nonnull align 8 dereferenceable(841) ptr @_ZN5clang18CompilerInvocation11getLangOptsEv(ptr noundef nonnull align 8 dereferenceable(192) %5)
  ret ptr %6
}

; Function Attrs: mustprogress nounwind uwtable
define dso_local noundef zeroext i1 @_ZN5clang29GenerateModuleInterfaceAction21BeginSourceFileActionERNS_16CompilerInstanceE(ptr noundef nonnull align 8 dereferenceable(104) %0, ptr noundef nonnull align 8 dereferenceable(352) %1) unnamed_addr #0 align 2 {
  %3 = alloca ptr, align 8
  %4 = alloca ptr, align 8
  store ptr %0, ptr %3, align 8
  store ptr %1, ptr %4, align 8
  %5 = load ptr, ptr %3, align 8
  %6 = load ptr, ptr %4, align 8
  %7 = call noundef nonnull align 8 dereferenceable(841) ptr @_ZN5clang16CompilerInstance11getLangOptsEv(ptr noundef nonnull align 8 dereferenceable(352) %6)
  call void @_ZN5clang11LangOptions18setCompilingModuleENS_15LangOptionsBase19CompilingModuleKindE(ptr noundef nonnull align 8 dereferenceable(841) %7, i32 noundef 3)
  %8 = load ptr, ptr %4, align 8
  %9 = call noundef zeroext i1 @_ZN5clang14FrontendAction21BeginSourceFileActionERNS_16CompilerInstanceE(ptr noundef nonnull align 8 dereferenceable(104) %5, ptr noundef nonnull align 8 dereferenceable(352) %8)
  ret i1 %9
}