; Function Attrs: mustprogress nofree norecurse nosync nounwind willreturn memory(readwrite, inaccessiblemem: none) uwtable
define dso_local noundef zeroext i1 @_ZN5clang29GenerateModuleInterfaceAction21BeginSourceFileActionERNS_16CompilerInstanceE(ptr nocapture nonnull readnone align 8 %0, ptr nocapture noundef nonnull readonly align 8 dereferenceable(352) %1) unnamed_addr #5 align 2 {
  %3 = getelementptr inbounds nuw i8, ptr %1, i64 16
  %4 = load ptr, ptr %3, align 8
  %5 = load ptr, ptr %4, align 8
  %6 = getelementptr inbounds nuw i8, ptr %5, i64 184
  %7 = load i64, ptr %6, align 8
  %8 = and i64 %7, -61572651155457
  %9 = or disjoint i64 %8, 26388279066624
  store i64 %9, ptr %6, align 8
  ret i1 true
}